; Function Attrs: mustprogress nofree norecurse nosync nounwind willreturn memory(read, inaccessiblemem: none) uwtable
define range(i32 -1, 2) i32 @Cudd_bddIsPsVar(ptr noundef readonly captures(none) %0, i32 noundef %1) local_unnamed_addr #4 {
  %3 = getelementptr inbounds nuw i8, ptr %0, i64 136
  %4 = load i32, ptr %3, align 8
  %5 = icmp sge i32 %1, %4
  %6 = icmp slt i32 %1, 0
  %or.cond = or i1 %6, %5
  br i1 %or.cond, label %20, label %7

7:                                                ; preds = %2
  %8 = getelementptr inbounds nuw i8, ptr %0, i64 152
  %9 = load ptr, ptr %8, align 8
  %10 = getelementptr inbounds nuw i8, ptr %0, i64 312
  %11 = load ptr, ptr %10, align 8
  %12 = zext nneg i32 %1 to i64
  %13 = getelementptr inbounds nuw i32, ptr %11, i64 %12
  %14 = load i32, ptr %13, align 4
  %15 = sext i32 %14 to i64
  %16 = getelementptr inbounds %struct.DdSubtable, ptr %9, i64 %15, i32 8
  %17 = load i32, ptr %16, align 4
  %18 = icmp eq i32 %17, 1
  %19 = zext i1 %18 to i32
  br label %20

20:                                               ; preds = %2, %7
  %.0 = phi i32 [ %19, %7 ], [ -1, %2 ]
  ret i32 %.0
}